#include <math.h>
#include <stdio.h>
#include <stdlib.h>
#include <string.h>

void main()
{
	int n,i,j,a[300],b[300]={0},p;
	scanf("%d",&n);
	for(i=0;i<n;i++)
	{
scanf("%d",&a[i]);
for(j=0;j<i;j++)
if(a[j]==a[i]){b[i]=1;break;}
	}
for(i=n-1;i>=0;i--)
{
	if(b[i]==0)
	{
		p=i;break;
	}
}
for(i=0;i<p;i++)
{
	if(b[i]==0)printf("%d,",a[i]);
}
printf("%d",a[p]);
}