; ModuleID = 'source-C-CXX/52/371.c'
source_filename = "source-C-CXX/52/371.c"
target datalayout = "e-m:e-p270:32:32-p271:32:32-p272:64:64-i64:64-f80:128-n8:16:32:64-S128"
target triple = "x86_64-pc-linux-gnu"

@.str = private unnamed_addr constant [3 x i8] c"%d\00", align 1
@.str.1 = private unnamed_addr constant [4 x i8] c"%d,\00", align 1

; Function Attrs: nofree nounwind sspstrong uwtable
define dso_local void @main() local_unnamed_addr #0 {
  %1 = alloca i32, align 4
  %2 = alloca [300 x i32], align 16
  %3 = alloca [300 x i32], align 16
  %4 = bitcast i32* %1 to i8*
  call void @llvm.lifetime.start.p0i8(i64 4, i8* nonnull %4) #5
  %5 = bitcast [300 x i32]* %2 to i8*
  call void @llvm.lifetime.start.p0i8(i64 1200, i8* nonnull %5) #5
  %6 = bitcast [300 x i32]* %3 to i8*
  call void @llvm.lifetime.start.p0i8(i64 1200, i8* nonnull %6) #5
  call void @llvm.memset.p0i8.i64(i8* noundef nonnull align 16 dereferenceable(1200) %6, i8 0, i64 1200, i1 false)
  %7 = call i32 (i8*, ...) @__isoc99_scanf(i8* getelementptr inbounds ([3 x i8], [3 x i8]* @.str, i64 0, i64 0), i32* nonnull %1)
  %8 = load i32, i32* %1, align 4, !tbaa !5
  %9 = icmp sgt i32 %8, 0
  br i1 %9, label %15, label %10

10:                                               ; preds = %32, %0
  %11 = phi i32 [ %8, %0 ], [ %34, %32 ]
  %12 = zext i32 %11 to i64
  %13 = call i32 @llvm.smin.i32(i32 %11, i32 0)
  %14 = add i32 %13, -1
  br label %37

15:                                               ; preds = %0, %32
  %16 = phi i64 [ %33, %32 ], [ 0, %0 ]
  %17 = getelementptr inbounds [300 x i32], [300 x i32]* %2, i64 0, i64 %16
  %18 = call i32 (i8*, ...) @__isoc99_scanf(i8* getelementptr inbounds ([3 x i8], [3 x i8]* @.str, i64 0, i64 0), i32* nonnull %17)
  %19 = icmp eq i64 %16, 0
  br i1 %19, label %32, label %20

20:                                               ; preds = %15
  %21 = load i32, i32* %17, align 4, !tbaa !5
  br label %24

22:                                               ; preds = %24
  %23 = icmp eq i64 %29, %16
  br i1 %23, label %32, label %24, !llvm.loop !9

24:                                               ; preds = %20, %22
  %25 = phi i64 [ 0, %20 ], [ %29, %22 ]
  %26 = getelementptr inbounds [300 x i32], [300 x i32]* %2, i64 0, i64 %25
  %27 = load i32, i32* %26, align 4, !tbaa !5
  %28 = icmp eq i32 %27, %21
  %29 = add nuw nsw i64 %25, 1
  br i1 %28, label %30, label %22

30:                                               ; preds = %24
  %31 = getelementptr inbounds [300 x i32], [300 x i32]* %3, i64 0, i64 %16
  store i32 1, i32* %31, align 4, !tbaa !5
  br label %32

32:                                               ; preds = %22, %15, %30
  %33 = add nuw nsw i64 %16, 1
  %34 = load i32, i32* %1, align 4, !tbaa !5
  %35 = sext i32 %34 to i64
  %36 = icmp slt i64 %33, %35
  br i1 %36, label %15, label %10, !llvm.loop !11

37:                                               ; preds = %10, %42
  %38 = phi i64 [ %12, %10 ], [ %47, %42 ]
  %39 = trunc i64 %38 to i32
  %40 = add nsw i32 %39, -1
  %41 = icmp sgt i32 %39, 0
  br i1 %41, label %42, label %65

42:                                               ; preds = %37
  %43 = zext i32 %40 to i64
  %44 = getelementptr inbounds [300 x i32], [300 x i32]* %3, i64 0, i64 %43
  %45 = load i32, i32* %44, align 4, !tbaa !5
  %46 = icmp eq i32 %45, 0
  %47 = add nsw i64 %38, -1
  br i1 %46, label %48, label %37, !llvm.loop !12

48:                                               ; preds = %42
  %49 = trunc i64 %38 to i32
  %50 = icmp sgt i32 %49, 1
  br i1 %50, label %51, label %65

51:                                               ; preds = %48
  %52 = zext i32 %40 to i64
  br label %53

53:                                               ; preds = %51, %62
  %54 = phi i64 [ 0, %51 ], [ %63, %62 ]
  %55 = getelementptr inbounds [300 x i32], [300 x i32]* %3, i64 0, i64 %54
  %56 = load i32, i32* %55, align 4, !tbaa !5
  %57 = icmp eq i32 %56, 0
  br i1 %57, label %58, label %62

58:                                               ; preds = %53
  %59 = getelementptr inbounds [300 x i32], [300 x i32]* %2, i64 0, i64 %54
  %60 = load i32, i32* %59, align 4, !tbaa !5
  %61 = call i32 (i8*, ...) @printf(i8* nonnull dereferenceable(1) getelementptr inbounds ([4 x i8], [4 x i8]* @.str.1, i64 0, i64 0), i32 %60)
  br label %62

62:                                               ; preds = %53, %58
  %63 = add nuw nsw i64 %54, 1
  %64 = icmp eq i64 %63, %52
  br i1 %64, label %65, label %53, !llvm.loop !13

65:                                               ; preds = %37, %62, %48
  %66 = phi i32 [ 0, %48 ], [ %40, %62 ], [ %14, %37 ]
  %67 = sext i32 %66 to i64
  %68 = getelementptr inbounds [300 x i32], [300 x i32]* %2, i64 0, i64 %67
  %69 = load i32, i32* %68, align 4, !tbaa !5
  %70 = call i32 (i8*, ...) @printf(i8* nonnull dereferenceable(1) getelementptr inbounds ([3 x i8], [3 x i8]* @.str, i64 0, i64 0), i32 %69)
  call void @llvm.lifetime.end.p0i8(i64 1200, i8* nonnull %6) #5
  call void @llvm.lifetime.end.p0i8(i64 1200, i8* nonnull %5) #5
  call void @llvm.lifetime.end.p0i8(i64 4, i8* nonnull %4) #5
  ret void
}

; Function Attrs: argmemonly mustprogress nofree nosync nounwind willreturn
declare void @llvm.lifetime.start.p0i8(i64 immarg, i8* nocapture) #1

; Function Attrs: argmemonly mustprogress nofree nounwind willreturn writeonly
declare void @llvm.memset.p0i8.i64(i8* nocapture writeonly, i8, i64, i1 immarg) #2

; Function Attrs: nofree nounwind
declare noundef i32 @__isoc99_scanf(i8* nocapture noundef readonly, ...) local_unnamed_addr #3

; Function Attrs: nofree nounwind
declare noundef i32 @printf(i8* nocapture noundef readonly, ...) local_unnamed_addr #3

; Function Attrs: argmemonly mustprogress nofree nosync nounwind willreturn
declare void @llvm.lifetime.end.p0i8(i64 immarg, i8* nocapture) #1

; Function Attrs: nofree nosync nounwind readnone speculatable willreturn
declare i32 @llvm.smin.i32(i32, i32) #4


!llvm.module.flags = !{!0, !1, !2, !3}
!llvm.ident = !{!4}

!0 = !{i32 1, !"wchar_size", i32 4}
!1 = !{i32 7, !"PIC Level", i32 2}
!2 = !{i32 7, !"PIE Level", i32 2}
!3 = !{i32 7, !"uwtable", i32 1}
!4 = !{!"clang version 13.0.0"}
!5 = !{!6, !6, i64 0}
!6 = !{!"int", !7, i64 0}
!7 = !{!"omnipotent char", !8, i64 0}
!8 = !{!"Simple C/C++ TBAA"}
!9 = distinct !{!9, !10}
!10 = !{!"llvm.loop.mustprogress"}
!11 = distinct !{!11, !10}
!12 = distinct !{!12, !10}
!13 = distinct !{!13, !10}
